; Function Attrs: mustprogress uwtable
define noundef i32 @_ZN6icu_7714MessagePattern14skipWhiteSpaceEi(ptr noundef nonnull align 8 dereferenceable(127) %0, i32 noundef %1) local_unnamed_addr #2 align 2 {
  %3 = getelementptr inbounds nuw i8, ptr %0, i64 24
  %4 = load i16, ptr %3, align 8, !tbaa !19
  %5 = and i16 %4, 17
  %.not.i = icmp eq i16 %5, 0
  br i1 %.not.i, label %6, label %_ZNK6icu_7713UnicodeString9getBufferEv.exit

6:                                                ; preds = %2
  %7 = and i16 %4, 2
  %.not2.i = icmp eq i16 %7, 0
  br i1 %.not2.i, label %10, label %8

8:                                                ; preds = %6
  %9 = getelementptr inbounds nuw i8, ptr %0, i64 26
  br label %_ZNK6icu_7713UnicodeString9getBufferEv.exit

10:                                               ; preds = %6
  %11 = getelementptr inbounds nuw i8, ptr %0, i64 40
  %12 = load ptr, ptr %11, align 8, !tbaa !19
  br label %_ZNK6icu_7713UnicodeString9getBufferEv.exit

_ZNK6icu_7713UnicodeString9getBufferEv.exit:      ; preds = %2, %8, %10
  %.0.i = phi ptr [ %9, %8 ], [ %12, %10 ], [ null, %2 ]
  %13 = icmp slt i16 %4, 0
  %14 = ashr i16 %4, 5
  %15 = sext i16 %14 to i32
  %16 = getelementptr inbounds nuw i8, ptr %0, i64 28
  %17 = load i32, ptr %16, align 4
  %18 = select i1 %13, i32 %17, i32 %15
  %19 = sext i32 %1 to i64
  %20 = getelementptr inbounds i16, ptr %.0.i, i64 %19
  %21 = sub nsw i32 %18, %1
  %22 = tail call noundef ptr @_ZN6icu_7712PatternProps14skipWhiteSpaceEPKDsi(ptr noundef %20, i32 noundef %21)
  %23 = ptrtoint ptr %22 to i64
  %24 = ptrtoint ptr %.0.i to i64
  %25 = sub i64 %23, %24
  %26 = lshr exact i64 %25, 1
  %27 = trunc i64 %26 to i32
  ret i32 %27
}